target datalayout = "e-m:e-p270:32:32-p271:32:32-p272:64:64-i64:64-i128:128-f80:128-n8:16:32:64-S128"
target triple = "x86_64-pc-linux-gnu"

%struct.ThreadFrame = type { ptr, [2 x ptr], ptr }

; Function Attrs: nounwind uwtable
define void @ff_thread_release_ext_buffer(ptr noundef %0) #0 {
  %2 = alloca ptr, align 8
  store ptr %0, ptr %2, align 8, !tbaa !134
  %3 = load ptr, ptr %2, align 8, !tbaa !134
  %4 = getelementptr inbounds nuw %struct.ThreadFrame, ptr %3, i32 0, i32 2
  call void @av_refstruct_unref(ptr noundef %4)
  %5 = load ptr, ptr %2, align 8, !tbaa !134
  %6 = getelementptr inbounds nuw %struct.ThreadFrame, ptr %5, i32 0, i32 1
  %7 = getelementptr inbounds [2 x ptr], ptr %6, i64 0, i64 1
  store ptr null, ptr %7, align 8, !tbaa !4
  %8 = load ptr, ptr %2, align 8, !tbaa !134
  %9 = getelementptr inbounds nuw %struct.ThreadFrame, ptr %8, i32 0, i32 1
  %10 = getelementptr inbounds [2 x ptr], ptr %9, i64 0, i64 0
  store ptr null, ptr %10, align 8, !tbaa !4
  %11 = load ptr, ptr %2, align 8, !tbaa !134
  %12 = getelementptr inbounds nuw %struct.ThreadFrame, ptr %11, i32 0, i32 0
  %13 = load ptr, ptr %12, align 8, !tbaa !182
  %14 = icmp ne ptr %13, null
  br i1 %14, label %15, label %19

15:                                               ; preds = %1
  %16 = load ptr, ptr %2, align 8, !tbaa !134
  %17 = getelementptr inbounds nuw %struct.ThreadFrame, ptr %16, i32 0, i32 0
  %18 = load ptr, ptr %17, align 8, !tbaa !182
  call void @av_frame_unref(ptr noundef %18)
  br label %19

19:                                               ; preds = %15, %1
  ret void
}