; Function Attrs: nounwind uwtable
define void @ff_thread_release_ext_buffer(ptr noundef %0) local_unnamed_addr #0 {
  %2 = getelementptr inbounds nuw i8, ptr %0, i64 24
  tail call void @av_refstruct_unref(ptr noundef nonnull %2) #11
  %3 = getelementptr inbounds nuw i8, ptr %0, i64 8
  tail call void @llvm.memset.p0.i64(ptr noundef nonnull align 8 dereferenceable(16) %3, i8 0, i64 16, i1 false)
  %4 = load ptr, ptr %0, align 8, !tbaa !176
  %.not = icmp eq ptr %4, null
  br i1 %.not, label %6, label %5

5:                                                ; preds = %1
  tail call void @av_frame_unref(ptr noundef nonnull %4) #11
  br label %6

6:                                                ; preds = %5, %1
  ret void
}